; Function Attrs: mustprogress uwtable
define void @_ZN3nix30ValuePrintingTests_vFloat_Test8TestBodyEv(ptr noundef nonnull align 8 dereferenceable(1272) %0) unnamed_addr #4 align 2 {
  %2 = alloca %"struct.nix::Value", align 8
  store i32 16, ptr %2, align 8
  %.sroa.23.0..sroa_idx = getelementptr inbounds i8, ptr %2, i64 8
  store double 2.000000e+00, ptr %.sroa.23.0..sroa_idx, align 8
  %.sroa.3.0..sroa_idx = getelementptr inbounds i8, ptr %2, i64 16
  store i64 0, ptr %.sroa.3.0..sroa_idx, align 8
  tail call void @_ZN3nix18ValuePrintingTests4testIJEEEvNS_5ValueESt17basic_string_viewIcSt11char_traitsIcEEDpT_(ptr noundef nonnull align 8 dereferenceable(1272) %0, ptr noundef nonnull byval(%"struct.nix::Value") align 8 %2, i64 1, ptr nonnull @.str.53)
  ret void
}